target datalayout = "e-m:e-p270:32:32-p271:32:32-p272:64:64-i64:64-i128:128-f80:128-n8:16:32:64-S128"
target triple = "x86_64-pc-linux-gnu"

%struct.FCOSConvKey = type { i32 }
%struct._packet_info = type { ptr, ptr, i32, i32, %struct.nstime_t, %struct.nstime_t, %struct.nstime_t, i8, ptr, ptr, ptr, ptr, %struct._address, %struct._address, %struct._address, %struct._address, %struct._address, %struct._address, i32, ptr, i8, [3 x i8], %struct.anon, i32, i32, i32, i32, ptr, i8, ptr, ptr, i16, i16, i32, i32, i16, i32, i32, ptr, ptr, ptr, i8, i8, i16, i16, i16, i32, i16, i16, ptr, ptr, ptr, ptr, ptr, i32, i32 }
%struct.nstime_t = type { i64, i32 }
%struct._address = type { i32, i32, ptr, ptr }
%struct.anon = type { i8, [3 x i8] }
%struct.conversation = type { ptr, ptr, ptr, i32, i32, i32, ptr, ptr, i32, ptr }
%struct.FCOSConvDevices = type { [10 x i32], [10 x i32] }

@.str.8 = private unnamed_addr constant [8 x i8] c"5co-rap\00", align 1
@fiveco_types_models_hash = internal global ptr null, align 8

; Function Attrs: null_pointer_is_valid sspstrong uwtable
define internal i32 @dissect_FiveCoRAP(ptr noundef %0, ptr noundef %1, ptr noundef %2, ptr noundef %3) #0 {
  %5 = alloca i32, align 4
  %6 = alloca ptr, align 8
  %7 = alloca ptr, align 8
  %8 = alloca ptr, align 8
  %9 = alloca ptr, align 8
  %10 = alloca i32, align 4
  %11 = alloca i32, align 4
  %12 = alloca i32, align 4
  %13 = alloca i32, align 4
  %14 = alloca ptr, align 8
  %15 = alloca %struct.FCOSConvKey, align 4
  %16 = alloca ptr, align 8
  %17 = alloca ptr, align 8
  %18 = alloca i32, align 4
  store ptr %0, ptr %6, align 8
  store ptr %1, ptr %7, align 8
  store ptr %2, ptr %8, align 8
  store ptr %3, ptr %9, align 8
  call void @llvm.lifetime.start.p0(i64 4, ptr %10) #7
  call void @llvm.lifetime.start.p0(i64 4, ptr %11) #7
  store i32 0, ptr %11, align 4
  call void @llvm.lifetime.start.p0(i64 4, ptr %12) #7
  store i32 0, ptr %12, align 4
  call void @llvm.lifetime.start.p0(i64 4, ptr %13) #7
  store i32 0, ptr %13, align 4
  call void @llvm.lifetime.start.p0(i64 8, ptr %14) #7
  call void @llvm.lifetime.start.p0(i64 4, ptr %15) #7
  call void @llvm.lifetime.start.p0(i64 8, ptr %16) #7
  call void @llvm.lifetime.start.p0(i64 8, ptr %17) #7
  %19 = load ptr, ptr %6, align 8
  %20 = call i32 @tvb_captured_length(ptr noundef %19)
  store i32 %20, ptr %12, align 4
  %21 = load i32, ptr %12, align 4
  %22 = icmp ult i32 %21, 5
  br i1 %22, label %23, label %24

23:                                               ; preds = %4
  store i32 0, ptr %5, align 4
  store i32 1, ptr %18, align 4
  br label %89

24:                                               ; preds = %4
  %25 = load ptr, ptr %7, align 8
  %26 = getelementptr inbounds nuw %struct._packet_info, ptr %25, i32 0, i32 1
  %27 = load ptr, ptr %26, align 8
  call void @col_set_str(ptr noundef %27, i32 noundef 35, ptr noundef @.str.8)
  %28 = load ptr, ptr %7, align 8
  %29 = getelementptr inbounds nuw %struct._packet_info, ptr %28, i32 0, i32 1
  %30 = load ptr, ptr %29, align 8
  call void @col_clear(ptr noundef %30, i32 noundef 25)
  %31 = load ptr, ptr %7, align 8
  %32 = call ptr @find_or_create_conversation(ptr noundef %31)
  store ptr %32, ptr %14, align 8
  %33 = load ptr, ptr %14, align 8
  %34 = getelementptr inbounds nuw %struct.conversation, ptr %33, i32 0, i32 3
  %35 = load i32, ptr %34, align 8
  %36 = getelementptr inbounds nuw %struct.FCOSConvKey, ptr %15, i32 0, i32 0
  store i32 %35, ptr %36, align 4
  %37 = load ptr, ptr @fiveco_types_models_hash, align 8
  %38 = call ptr @g_hash_table_lookup(ptr noundef %37, ptr noundef %15)
  store ptr %38, ptr %17, align 8
  %39 = load ptr, ptr %17, align 8
  %40 = icmp ne ptr %39, null
  br i1 %40, label %69, label %41

41:                                               ; preds = %24
  %42 = call ptr @wmem_file_scope()
  %43 = call noalias ptr @wmem_alloc(ptr noundef %42, i64 noundef 4) #8
  store ptr %43, ptr %16, align 8
  %44 = load ptr, ptr %16, align 8
  call void @llvm.memcpy.p0.p0.i64(ptr align 4 %44, ptr align 4 %15, i64 4, i1 false)
  %45 = call ptr @wmem_file_scope()
  %46 = call noalias ptr @wmem_alloc(ptr noundef %45, i64 noundef 80) #8
  store ptr %46, ptr %17, align 8
  store i32 0, ptr %10, align 4
  br label %47

47:                                               ; preds = %61, %41
  %48 = load i32, ptr %10, align 4
  %49 = icmp ult i32 %48, 10
  br i1 %49, label %50, label %64

50:                                               ; preds = %47
  %51 = load ptr, ptr %17, align 8
  %52 = getelementptr inbounds nuw %struct.FCOSConvDevices, ptr %51, i32 0, i32 0
  %53 = load i32, ptr %10, align 4
  %54 = zext i32 %53 to i64
  %55 = getelementptr [10 x i32], ptr %52, i64 0, i64 %54
  store i32 0, ptr %55, align 4
  %56 = load ptr, ptr %17, align 8
  %57 = getelementptr inbounds nuw %struct.FCOSConvDevices, ptr %56, i32 0, i32 1
  %58 = load i32, ptr %10, align 4
  %59 = zext i32 %58 to i64
  %60 = getelementptr [10 x i32], ptr %57, i64 0, i64 %59
  store i32 0, ptr %60, align 4
  br label %61

61:                                               ; preds = %50
  %62 = load i32, ptr %10, align 4
  %63 = add i32 %62, 1
  store i32 %63, ptr %10, align 4
  br label %47, !llvm.loop !12

64:                                               ; preds = %47
  %65 = load ptr, ptr @fiveco_types_models_hash, align 8
  %66 = load ptr, ptr %16, align 8
  %67 = load ptr, ptr %17, align 8
  %68 = call i32 @g_hash_table_insert(ptr noundef %65, ptr noundef %66, ptr noundef %67)
  br label %69

69:                                               ; preds = %64, %24
  br label %70

70:                                               ; preds = %85, %69
  %71 = load i32, ptr %11, align 4
  %72 = load i32, ptr %12, align 4
  %73 = icmp ult i32 %71, %72
  br i1 %73, label %74, label %86

74:                                               ; preds = %70
  %75 = load ptr, ptr %6, align 8
  %76 = load ptr, ptr %7, align 8
  %77 = load ptr, ptr %8, align 8
  %78 = load ptr, ptr %17, align 8
  %79 = load i32, ptr %11, align 4
  %80 = load i32, ptr %12, align 4
  %81 = call i32 @dissect_frame(ptr noundef %75, ptr noundef %76, ptr noundef %77, ptr noundef %78, i32 noundef %79, i32 noundef %80, ptr noundef %13)
  store i32 %81, ptr %11, align 4
  %82 = load i32, ptr %11, align 4
  %83 = icmp eq i32 %82, 0
  br i1 %83, label %84, label %85

84:                                               ; preds = %74
  store i32 0, ptr %5, align 4
  store i32 1, ptr %18, align 4
  br label %89

85:                                               ; preds = %74
  br label %70, !llvm.loop !13

86:                                               ; preds = %70
  %87 = load ptr, ptr %6, align 8
  %88 = call i32 @tvb_captured_length(ptr noundef %87)
  store i32 %88, ptr %5, align 4
  store i32 1, ptr %18, align 4
  br label %89

89:                                               ; preds = %86, %84, %23
  call void @llvm.lifetime.end.p0(i64 8, ptr %17) #7
  call void @llvm.lifetime.end.p0(i64 8, ptr %16) #7
  call void @llvm.lifetime.end.p0(i64 4, ptr %15) #7
  call void @llvm.lifetime.end.p0(i64 8, ptr %14) #7
  call void @llvm.lifetime.end.p0(i64 4, ptr %13) #7
  call void @llvm.lifetime.end.p0(i64 4, ptr %12) #7
  call void @llvm.lifetime.end.p0(i64 4, ptr %11) #7
  call void @llvm.lifetime.end.p0(i64 4, ptr %10) #7
  %90 = load i32, ptr %5, align 4
  ret i32 %90
}