; Function Attrs: null_pointer_is_valid sspstrong uwtable
define internal i32 @dissect_FiveCoRAP(ptr noundef %0, ptr noundef %1, ptr noundef %2, ptr readnone captures(none) %3) #0 {
  %5 = alloca i32, align 4
  %6 = alloca %struct.FCOSConvKey, align 4
  call void @llvm.lifetime.start.p0(i64 4, ptr nonnull %5) #9
  store i32 0, ptr %5, align 4
  call void @llvm.lifetime.start.p0(i64 4, ptr nonnull %6) #9
  %7 = tail call i32 @tvb_captured_length(ptr noundef %0)
  %8 = icmp ult i32 %7, 5
  br i1 %8, label %.loopexit, label %9

9:                                                ; preds = %4
  %10 = getelementptr inbounds nuw i8, ptr %1, i64 8
  %11 = load ptr, ptr %10, align 8
  tail call void @col_set_str(ptr noundef %11, i32 noundef 35, ptr noundef nonnull @.str.8)
  %12 = load ptr, ptr %10, align 8
  tail call void @col_clear(ptr noundef %12, i32 noundef 25)
  %13 = tail call ptr @find_or_create_conversation(ptr noundef %1)
  %14 = getelementptr inbounds nuw i8, ptr %13, i64 24
  %15 = load i32, ptr %14, align 8
  store i32 %15, ptr %6, align 4
  %16 = load ptr, ptr @fiveco_types_models_hash, align 8
  %17 = call ptr @g_hash_table_lookup(ptr noundef %16, ptr noundef nonnull %6)
  %.not = icmp eq ptr %17, null
  br i1 %.not, label %18, label %26

18:                                               ; preds = %9
  %19 = call ptr @wmem_file_scope()
  %20 = call noalias dereferenceable_or_null(4) ptr @wmem_alloc(ptr noundef %19, i64 noundef 4) #10
  %21 = load i32, ptr %6, align 4
  store i32 %21, ptr %20, align 4
  %22 = call ptr @wmem_file_scope()
  %23 = call noalias dereferenceable_or_null(80) ptr @wmem_alloc(ptr noundef %22, i64 noundef 80) #10
  call void @llvm.memset.p0.i64(ptr noundef align 4 dereferenceable(80) %23, i8 0, i64 80, i1 false)
  %24 = load ptr, ptr @fiveco_types_models_hash, align 8
  %25 = call i32 @g_hash_table_insert(ptr noundef %24, ptr noundef %20, ptr noundef %23)
  br label %26

26:                                               ; preds = %18, %9
  %.0 = phi ptr [ %17, %9 ], [ %23, %18 ]
  br label %27

27:                                               ; preds = %29, %26
  %.028 = phi i32 [ 0, %26 ], [ %30, %29 ]
  %28 = icmp ult i32 %.028, %7
  br i1 %28, label %29, label %32

29:                                               ; preds = %27
  %30 = call fastcc i32 @dissect_frame(ptr noundef %0, ptr noundef %1, ptr noundef %2, ptr noundef %.0, i32 noundef %.028, i32 noundef %7, ptr noundef nonnull %5)
  %31 = icmp eq i32 %30, 0
  br i1 %31, label %.loopexit, label %27, !llvm.loop !9

32:                                               ; preds = %27
  %33 = call i32 @tvb_captured_length(ptr noundef %0)
  br label %.loopexit

.loopexit:                                        ; preds = %29, %4, %32
  %.026 = phi i32 [ %33, %32 ], [ 0, %4 ], [ 0, %29 ]
  call void @llvm.lifetime.end.p0(i64 4, ptr nonnull %6) #9
  call void @llvm.lifetime.end.p0(i64 4, ptr nonnull %5) #9
  ret i32 %.026
}